; Function Attrs: mustprogress uwtable
define void @_Z20common_sampler_resetP14common_sampler(ptr noundef readonly captures(none) %0) local_unnamed_addr #0 {
  %2 = getelementptr inbounds nuw i8, ptr %0, i64 312
  %3 = load ptr, ptr %2, align 8, !tbaa !80
  tail call void @llama_sampler_reset(ptr noundef %3)
  %4 = getelementptr inbounds nuw i8, ptr %0, i64 320
  %5 = load ptr, ptr %4, align 8, !tbaa !90
  tail call void @llama_sampler_reset(ptr noundef %5)
  ret void
}